; Function Attrs: mustprogress nofree norecurse nosync nounwind willreturn memory(argmem: readwrite) uwtable
define internal noundef zeroext i1 @"_ZNSt17_Function_handlerIFvRN2tf7RuntimeEEZNS0_12DataPipelineIJNS0_8DataPipeIviZ4mainE3$_0EENS5_IiNSt7__cxx1112basic_stringIcSt11char_traitsIcESaIcEEEZ4mainE3$_1EENS5_ISD_vZ4mainE3$_2EEEE6_buildEvEUlS2_E_E10_M_managerERSt9_Any_dataRKSL_St18_Manager_operation"(ptr nocapture noundef nonnull writeonly align 8 dereferenceable(16) %__dest, ptr noundef nonnull align 8 dereferenceable(16) %__source, i32 noundef %__op) #25 align 2 personality ptr @__gxx_personality_v0 {
entry:
  switch i32 %__op, label %sw.epilog [
    i32 0, label %sw.bb
    i32 1, label %sw.bb1
    i32 2, label %sw.bb4.i
  ]

sw.bb:                                            ; preds = %entry
  store ptr @"_ZTIZN2tf12DataPipelineIJNS_8DataPipeIviZ4mainE3$_0EENS1_IiNSt7__cxx1112basic_stringIcSt11char_traitsIcESaIcEEEZ4mainE3$_1EENS1_IS9_vZ4mainE3$_2EEEE6_buildEvEUlRNS_7RuntimeEE_", ptr %__dest, align 8
  br label %sw.epilog

sw.bb1:                                           ; preds = %entry
  store ptr %__source, ptr %__dest, align 8
  br label %sw.epilog

sw.bb4.i:                                         ; preds = %entry
  tail call void @llvm.memcpy.p0.p0.i64(ptr noundef nonnull align 8 dereferenceable(16) %__dest, ptr noundef nonnull align 8 dereferenceable(16) %__source, i64 16, i1 false)
  br label %sw.epilog

sw.epilog:                                        ; preds = %entry, %sw.bb4.i, %sw.bb1, %sw.bb
  ret i1 false
}